; Function Attrs: nounwind uwtable
define range(i32 0, 2) i32 @ossl_quic_wire_decode_frame_reset_stream(ptr noundef captures(none) %0, ptr noundef writeonly captures(none) %1) local_unnamed_addr #2 {
  %3 = getelementptr i8, ptr %0, i64 8
  %.val.i.i.i = load i64, ptr %3, align 8, !tbaa !52
  %4 = icmp eq i64 %.val.i.i.i, 0
  br i1 %4, label %expect_frame_header.exit.thread, label %5

5:                                                ; preds = %2
  %6 = load ptr, ptr %0, align 8, !tbaa !54
  %7 = load i8, ptr %6, align 1, !tbaa !55
  %8 = lshr i8 %7, 6
  %9 = zext nneg i8 %8 to i32
  %10 = shl nuw nsw i32 1, %9
  %11 = zext nneg i32 %10 to i64
  %12 = icmp ult i64 %.val.i.i.i, %11
  br i1 %12, label %expect_frame_header.exit.thread, label %expect_frame_header.exit

expect_frame_header.exit:                         ; preds = %5
  %13 = tail call i64 @ossl_quic_vlint_decode_unchecked(ptr noundef nonnull %6) #12
  %14 = load ptr, ptr %0, align 8, !tbaa !54
  %15 = getelementptr inbounds nuw i8, ptr %14, i64 %11
  store ptr %15, ptr %0, align 8, !tbaa !54
  %16 = load i64, ptr %3, align 8, !tbaa !52
  %17 = sub i64 %16, %11
  store i64 %17, ptr %3, align 8, !tbaa !52
  %.not2.i.not = icmp ne i64 %13, 4
  %18 = icmp eq i64 %16, %11
  %or.cond = select i1 %.not2.i.not, i1 true, i1 %18
  br i1 %or.cond, label %expect_frame_header.exit.thread, label %19

19:                                               ; preds = %expect_frame_header.exit
  %20 = load i8, ptr %15, align 1, !tbaa !55
  %21 = lshr i8 %20, 6
  %22 = zext nneg i8 %21 to i32
  %23 = shl nuw nsw i32 1, %22
  %24 = zext nneg i32 %23 to i64
  %25 = icmp ult i64 %17, %24
  br i1 %25, label %expect_frame_header.exit.thread, label %26

26:                                               ; preds = %19
  %27 = tail call i64 @ossl_quic_vlint_decode_unchecked(ptr noundef nonnull %15) #12
  store i64 %27, ptr %1, align 8, !tbaa !56
  %28 = load ptr, ptr %0, align 8, !tbaa !54
  %29 = getelementptr inbounds nuw i8, ptr %28, i64 %24
  store ptr %29, ptr %0, align 8, !tbaa !54
  %30 = load i64, ptr %3, align 8, !tbaa !52
  %31 = sub i64 %30, %24
  store i64 %31, ptr %3, align 8, !tbaa !52
  %32 = getelementptr inbounds nuw i8, ptr %1, i64 8
  %33 = icmp eq i64 %30, %24
  br i1 %33, label %expect_frame_header.exit.thread, label %34

34:                                               ; preds = %26
  %35 = load i8, ptr %29, align 1, !tbaa !55
  %36 = lshr i8 %35, 6
  %37 = zext nneg i8 %36 to i32
  %38 = shl nuw nsw i32 1, %37
  %39 = zext nneg i32 %38 to i64
  %40 = icmp ult i64 %31, %39
  br i1 %40, label %expect_frame_header.exit.thread, label %41

41:                                               ; preds = %34
  %42 = tail call i64 @ossl_quic_vlint_decode_unchecked(ptr noundef nonnull %29) #12
  store i64 %42, ptr %32, align 8, !tbaa !56
  %43 = load ptr, ptr %0, align 8, !tbaa !54
  %44 = getelementptr inbounds nuw i8, ptr %43, i64 %39
  store ptr %44, ptr %0, align 8, !tbaa !54
  %45 = load i64, ptr %3, align 8, !tbaa !52
  %46 = sub i64 %45, %39
  store i64 %46, ptr %3, align 8, !tbaa !52
  %47 = getelementptr inbounds nuw i8, ptr %1, i64 16
  %48 = icmp eq i64 %45, %39
  br i1 %48, label %expect_frame_header.exit.thread, label %49

49:                                               ; preds = %41
  %50 = load i8, ptr %44, align 1, !tbaa !55
  %51 = lshr i8 %50, 6
  %52 = zext nneg i8 %51 to i32
  %53 = shl nuw nsw i32 1, %52
  %54 = zext nneg i32 %53 to i64
  %55 = icmp ult i64 %46, %54
  br i1 %55, label %expect_frame_header.exit.thread, label %PACKET_get_quic_vlint.exit16

PACKET_get_quic_vlint.exit16:                     ; preds = %49
  %56 = tail call i64 @ossl_quic_vlint_decode_unchecked(ptr noundef nonnull %44) #12
  store i64 %56, ptr %47, align 8, !tbaa !56
  %57 = load ptr, ptr %0, align 8, !tbaa !54
  %58 = getelementptr inbounds nuw i8, ptr %57, i64 %54
  store ptr %58, ptr %0, align 8, !tbaa !54
  %59 = load i64, ptr %3, align 8, !tbaa !52
  %60 = sub i64 %59, %54
  store i64 %60, ptr %3, align 8, !tbaa !52
  br label %expect_frame_header.exit.thread

expect_frame_header.exit.thread:                  ; preds = %34, %26, %19, %5, %2, %PACKET_get_quic_vlint.exit16, %41, %49, %expect_frame_header.exit
  %.0 = phi i32 [ 0, %expect_frame_header.exit ], [ 1, %PACKET_get_quic_vlint.exit16 ], [ 0, %41 ], [ 0, %49 ], [ 0, %2 ], [ 0, %5 ], [ 0, %19 ], [ 0, %26 ], [ 0, %34 ]
  ret i32 %.0
}